target datalayout = "e-m:e-p270:32:32-p271:32:32-p272:64:64-i64:64-i128:128-f80:128-n8:16:32:64-S128"
target triple = "x86_64-pc-linux-gnu"

%struct.AV1RawDecoderModelInfo = type { i8, i32, i8, i8 }

@.str.84 = private unnamed_addr constant [28 x i8] c"buffer_delay_length_minus_1\00", align 1
@.str.85 = private unnamed_addr constant [27 x i8] c"num_units_in_decoding_tick\00", align 1
@.str.86 = private unnamed_addr constant [35 x i8] c"buffer_removal_time_length_minus_1\00", align 1
@.str.87 = private unnamed_addr constant [39 x i8] c"frame_presentation_time_length_minus_1\00", align 1

; Function Attrs: nounwind uwtable
define internal i32 @cbs_av1_write_decoder_model_info(ptr noundef %0, ptr noundef %1, ptr noundef %2) #0 {
  %4 = alloca i32, align 4
  %5 = alloca ptr, align 8
  %6 = alloca ptr, align 8
  %7 = alloca ptr, align 8
  %8 = alloca i32, align 4
  %9 = alloca i32, align 4
  store ptr %0, ptr %5, align 8, !tbaa !4
  store ptr %1, ptr %6, align 8, !tbaa !71
  store ptr %2, ptr %7, align 8, !tbaa !199
  call void @llvm.lifetime.start.p0(i64 4, ptr %8) #8
  br label %10

10:                                               ; preds = %3
  br label %11

11:                                               ; preds = %10
  %12 = load ptr, ptr %5, align 8, !tbaa !4
  %13 = load ptr, ptr %6, align 8, !tbaa !71
  %14 = load ptr, ptr %7, align 8, !tbaa !199
  %15 = getelementptr inbounds nuw %struct.AV1RawDecoderModelInfo, ptr %14, i32 0, i32 0
  %16 = load i8, ptr %15, align 4, !tbaa !201
  %17 = zext i8 %16 to i32
  %18 = call i32 @ff_cbs_write_simple_unsigned(ptr noundef %12, ptr noundef %13, i32 noundef 5, ptr noundef @.str.84, i32 noundef %17)
  store i32 %18, ptr %8, align 4, !tbaa !11
  %19 = load i32, ptr %8, align 4, !tbaa !11
  %20 = icmp slt i32 %19, 0
  br i1 %20, label %21, label %23

21:                                               ; preds = %11
  %22 = load i32, ptr %8, align 4, !tbaa !11
  store i32 %22, ptr %4, align 4
  store i32 1, ptr %9, align 4
  br label %81

23:                                               ; preds = %11
  br label %24

24:                                               ; preds = %23
  br label %25

25:                                               ; preds = %24
  br label %26

26:                                               ; preds = %25
  br label %27

27:                                               ; preds = %26
  br label %28

28:                                               ; preds = %27
  br label %29

29:                                               ; preds = %28
  %30 = load ptr, ptr %5, align 8, !tbaa !4
  %31 = load ptr, ptr %6, align 8, !tbaa !71
  %32 = load ptr, ptr %7, align 8, !tbaa !199
  %33 = getelementptr inbounds nuw %struct.AV1RawDecoderModelInfo, ptr %32, i32 0, i32 1
  %34 = load i32, ptr %33, align 4, !tbaa !202
  %35 = call i32 @ff_cbs_write_unsigned(ptr noundef %30, ptr noundef %31, i32 noundef 32, ptr noundef @.str.85, ptr noundef null, i32 noundef %34, i32 noundef 1, i32 noundef -1)
  store i32 %35, ptr %8, align 4, !tbaa !11
  %36 = load i32, ptr %8, align 4, !tbaa !11
  %37 = icmp slt i32 %36, 0
  br i1 %37, label %38, label %40

38:                                               ; preds = %29
  %39 = load i32, ptr %8, align 4, !tbaa !11
  store i32 %39, ptr %4, align 4
  store i32 1, ptr %9, align 4
  br label %81

40:                                               ; preds = %29
  br label %41

41:                                               ; preds = %40
  br label %42

42:                                               ; preds = %41
  br label %43

43:                                               ; preds = %42
  br label %44

44:                                               ; preds = %43
  br label %45

45:                                               ; preds = %44
  br label %46

46:                                               ; preds = %45
  %47 = load ptr, ptr %5, align 8, !tbaa !4
  %48 = load ptr, ptr %6, align 8, !tbaa !71
  %49 = load ptr, ptr %7, align 8, !tbaa !199
  %50 = getelementptr inbounds nuw %struct.AV1RawDecoderModelInfo, ptr %49, i32 0, i32 2
  %51 = load i8, ptr %50, align 4, !tbaa !203
  %52 = zext i8 %51 to i32
  %53 = call i32 @ff_cbs_write_simple_unsigned(ptr noundef %47, ptr noundef %48, i32 noundef 5, ptr noundef @.str.86, i32 noundef %52)
  store i32 %53, ptr %8, align 4, !tbaa !11
  %54 = load i32, ptr %8, align 4, !tbaa !11
  %55 = icmp slt i32 %54, 0
  br i1 %55, label %56, label %58

56:                                               ; preds = %46
  %57 = load i32, ptr %8, align 4, !tbaa !11
  store i32 %57, ptr %4, align 4
  store i32 1, ptr %9, align 4
  br label %81

58:                                               ; preds = %46
  br label %59

59:                                               ; preds = %58
  br label %60

60:                                               ; preds = %59
  br label %61

61:                                               ; preds = %60
  br label %62

62:                                               ; preds = %61
  br label %63

63:                                               ; preds = %62
  br label %64

64:                                               ; preds = %63
  %65 = load ptr, ptr %5, align 8, !tbaa !4
  %66 = load ptr, ptr %6, align 8, !tbaa !71
  %67 = load ptr, ptr %7, align 8, !tbaa !199
  %68 = getelementptr inbounds nuw %struct.AV1RawDecoderModelInfo, ptr %67, i32 0, i32 3
  %69 = load i8, ptr %68, align 1, !tbaa !204
  %70 = zext i8 %69 to i32
  %71 = call i32 @ff_cbs_write_simple_unsigned(ptr noundef %65, ptr noundef %66, i32 noundef 5, ptr noundef @.str.87, i32 noundef %70)
  store i32 %71, ptr %8, align 4, !tbaa !11
  %72 = load i32, ptr %8, align 4, !tbaa !11
  %73 = icmp slt i32 %72, 0
  br i1 %73, label %74, label %76

74:                                               ; preds = %64
  %75 = load i32, ptr %8, align 4, !tbaa !11
  store i32 %75, ptr %4, align 4
  store i32 1, ptr %9, align 4
  br label %81

76:                                               ; preds = %64
  br label %77

77:                                               ; preds = %76
  br label %78

78:                                               ; preds = %77
  br label %79

79:                                               ; preds = %78
  br label %80

80:                                               ; preds = %79
  store i32 0, ptr %4, align 4
  store i32 1, ptr %9, align 4
  br label %81

81:                                               ; preds = %80, %74, %56, %38, %21
  call void @llvm.lifetime.end.p0(i64 4, ptr %8) #8
  %82 = load i32, ptr %4, align 4
  ret i32 %82
}