; Function Attrs: nounwind uwtable
define internal fastcc range(i32 -2147483648, 1) i32 @cbs_av1_write_decoder_model_info(ptr noundef %0, ptr noundef %1, ptr noundef readonly captures(none) %2) unnamed_addr #0 {
  %4 = load i8, ptr %2, align 4, !tbaa !298
  %5 = zext i8 %4 to i32
  %6 = tail call i32 @ff_cbs_write_simple_unsigned(ptr noundef %0, ptr noundef %1, i32 noundef 5, ptr noundef nonnull @.str.84, i32 noundef %5) #8
  %7 = icmp slt i32 %6, 0
  br i1 %7, label %24, label %8

8:                                                ; preds = %3
  %9 = getelementptr inbounds nuw i8, ptr %2, i64 4
  %10 = load i32, ptr %9, align 4, !tbaa !299
  %11 = tail call i32 @ff_cbs_write_unsigned(ptr noundef %0, ptr noundef %1, i32 noundef 32, ptr noundef nonnull @.str.85, ptr noundef null, i32 noundef %10, i32 noundef 1, i32 noundef -1) #8
  %12 = icmp slt i32 %11, 0
  br i1 %12, label %24, label %13

13:                                               ; preds = %8
  %14 = getelementptr inbounds nuw i8, ptr %2, i64 8
  %15 = load i8, ptr %14, align 4, !tbaa !300
  %16 = zext i8 %15 to i32
  %17 = tail call i32 @ff_cbs_write_simple_unsigned(ptr noundef %0, ptr noundef %1, i32 noundef 5, ptr noundef nonnull @.str.86, i32 noundef %16) #8
  %18 = icmp slt i32 %17, 0
  br i1 %18, label %24, label %19

19:                                               ; preds = %13
  %20 = getelementptr inbounds nuw i8, ptr %2, i64 9
  %21 = load i8, ptr %20, align 1, !tbaa !301
  %22 = zext i8 %21 to i32
  %23 = tail call i32 @ff_cbs_write_simple_unsigned(ptr noundef %0, ptr noundef %1, i32 noundef 5, ptr noundef nonnull @.str.87, i32 noundef %22) #8
  %. = tail call i32 @llvm.smin.i32(i32 %23, i32 0)
  br label %24

24:                                               ; preds = %19, %13, %8, %3
  %.0 = phi i32 [ %6, %3 ], [ %11, %8 ], [ %17, %13 ], [ %., %19 ]
  ret i32 %.0
}